; Function Attrs: nounwind uwtable
define dso_local void @activeDefragQuickListNode(ptr noundef writeonly captures(none) %0, ptr noundef captures(none) %1) local_unnamed_addr #0 {
  %3 = load ptr, ptr %1, align 8, !tbaa !83
  %4 = tail call i32 @je_get_defrag_hint(ptr noundef %3) #10
  %.not.i = icmp eq i32 %4, 0
  br i1 %.not.i, label %activeDefragAlloc.exit.thread, label %activeDefragAlloc.exit

activeDefragAlloc.exit.thread:                    ; preds = %2
  %5 = load i64, ptr getelementptr inbounds nuw (i8, ptr @server, i64 2592), align 8, !tbaa !5
  %6 = add nsw i64 %5, 1
  store i64 %6, ptr getelementptr inbounds nuw (i8, ptr @server, i64 2592), align 8, !tbaa !5
  br label %23

activeDefragAlloc.exit:                           ; preds = %2
  %7 = tail call i64 @je_malloc_usable_size(ptr noundef %3) #10
  %8 = tail call noalias ptr @zmalloc_no_tcache(i64 noundef %7) #10
  tail call void @llvm.memcpy.p0.p0.i64(ptr align 1 %8, ptr align 1 %3, i64 %7, i1 false)
  tail call void @zfree_no_tcache(ptr noundef %3) #10
  %9 = load i64, ptr getelementptr inbounds nuw (i8, ptr @server, i64 2584), align 8, !tbaa !38
  %10 = add nsw i64 %9, 1
  store i64 %10, ptr getelementptr inbounds nuw (i8, ptr @server, i64 2584), align 8, !tbaa !38
  %.not = icmp eq ptr %8, null
  br i1 %.not, label %23, label %11

11:                                               ; preds = %activeDefragAlloc.exit
  %12 = load ptr, ptr %8, align 8, !tbaa !85
  %.not21 = icmp eq ptr %12, null
  br i1 %.not21, label %15, label %13

13:                                               ; preds = %11
  %14 = getelementptr inbounds nuw i8, ptr %12, i64 8
  store ptr %8, ptr %14, align 8, !tbaa !87
  br label %16

15:                                               ; preds = %11
  store ptr %8, ptr %0, align 8, !tbaa !83
  br label %16

16:                                               ; preds = %15, %13
  %17 = getelementptr inbounds nuw i8, ptr %8, i64 8
  %18 = load ptr, ptr %17, align 8, !tbaa !87
  %.not22 = icmp eq ptr %18, null
  br i1 %.not22, label %20, label %19

19:                                               ; preds = %16
  store ptr %8, ptr %18, align 8, !tbaa !85
  br label %22

20:                                               ; preds = %16
  %21 = getelementptr inbounds nuw i8, ptr %0, i64 8
  store ptr %8, ptr %21, align 8, !tbaa !83
  br label %22

22:                                               ; preds = %20, %19
  store ptr %8, ptr %1, align 8, !tbaa !83
  br label %23

23:                                               ; preds = %activeDefragAlloc.exit.thread, %22, %activeDefragAlloc.exit
  %.0 = phi ptr [ %8, %22 ], [ %3, %activeDefragAlloc.exit ], [ %3, %activeDefragAlloc.exit.thread ]
  %24 = getelementptr inbounds nuw i8, ptr %.0, i64 16
  %25 = load ptr, ptr %24, align 8, !tbaa !88
  %26 = tail call i32 @je_get_defrag_hint(ptr noundef %25) #10
  %.not.i24 = icmp eq i32 %26, 0
  br i1 %.not.i24, label %activeDefragAlloc.exit26.thread, label %activeDefragAlloc.exit26

activeDefragAlloc.exit26.thread:                  ; preds = %23
  %27 = load i64, ptr getelementptr inbounds nuw (i8, ptr @server, i64 2592), align 8, !tbaa !5
  %28 = add nsw i64 %27, 1
  store i64 %28, ptr getelementptr inbounds nuw (i8, ptr @server, i64 2592), align 8, !tbaa !5
  br label %34

activeDefragAlloc.exit26:                         ; preds = %23
  %29 = tail call i64 @je_malloc_usable_size(ptr noundef %25) #10
  %30 = tail call noalias ptr @zmalloc_no_tcache(i64 noundef %29) #10
  tail call void @llvm.memcpy.p0.p0.i64(ptr align 1 %30, ptr align 1 %25, i64 %29, i1 false)
  tail call void @zfree_no_tcache(ptr noundef %25) #10
  %31 = load i64, ptr getelementptr inbounds nuw (i8, ptr @server, i64 2584), align 8, !tbaa !38
  %32 = add nsw i64 %31, 1
  store i64 %32, ptr getelementptr inbounds nuw (i8, ptr @server, i64 2584), align 8, !tbaa !38
  %.not23 = icmp eq ptr %30, null
  br i1 %.not23, label %34, label %33

33:                                               ; preds = %activeDefragAlloc.exit26
  store ptr %30, ptr %24, align 8, !tbaa !88
  br label %34

34:                                               ; preds = %activeDefragAlloc.exit26.thread, %33, %activeDefragAlloc.exit26
  ret void
}